target datalayout = "e-m:e-p270:32:32-p271:32:32-p272:64:64-i64:64-i128:128-f80:128-n8:16:32:64-S128"
target triple = "x86_64-pc-linux-gnu"

@.str = private unnamed_addr constant [28 x i8] c"testfunc_array %d %d %d %d\0A\00", align 1

; Function Attrs: nounwind uwtable
define void @testfunc_array(ptr noundef %0) #0 {
  %2 = alloca ptr, align 8
  store ptr %0, ptr %2, align 8, !tbaa !44
  %3 = load ptr, ptr %2, align 8, !tbaa !44
  %4 = getelementptr i32, ptr %3, i64 0
  %5 = load i32, ptr %4, align 4, !tbaa !3
  %6 = load ptr, ptr %2, align 8, !tbaa !44
  %7 = getelementptr i32, ptr %6, i64 1
  %8 = load i32, ptr %7, align 4, !tbaa !3
  %9 = load ptr, ptr %2, align 8, !tbaa !44
  %10 = getelementptr i32, ptr %9, i64 2
  %11 = load i32, ptr %10, align 4, !tbaa !3
  %12 = load ptr, ptr %2, align 8, !tbaa !44
  %13 = getelementptr i32, ptr %12, i64 3
  %14 = load i32, ptr %13, align 4, !tbaa !3
  %15 = call i32 (ptr, ...) @printf(ptr noundef @.str, i32 noundef %5, i32 noundef %8, i32 noundef %11, i32 noundef %14)
  ret void
}