; Function Attrs: nofree nounwind uwtable
define void @testfunc_array(ptr noundef readonly captures(none) %0) local_unnamed_addr #13 {
  %2 = load i32, ptr %0, align 4, !tbaa !10
  %3 = getelementptr i8, ptr %0, i64 4
  %4 = load i32, ptr %3, align 4, !tbaa !10
  %5 = getelementptr i8, ptr %0, i64 8
  %6 = load i32, ptr %5, align 4, !tbaa !10
  %7 = getelementptr i8, ptr %0, i64 12
  %8 = load i32, ptr %7, align 4, !tbaa !10
  %9 = tail call i32 (ptr, ...) @printf(ptr noundef nonnull dereferenceable(1) @.str, i32 noundef %2, i32 noundef %4, i32 noundef %6, i32 noundef %8)
  ret void
}